Certificate:
    Data:
        Version: 3 (0x2)
        Serial Number: 16137085942311386303 (0xdff2722aa56b7cbf)
    Signature Algorithm: sha1WithRSAEncryption
        Issuer: C=UA, ST=~~~, O=SiriPort.Ru, CN=SiriPort.Ru Original, CN=SiriPort.Ru Original/emailAddress=gdimaits@me.com
        Validity
            Not Before: Dec 26 06:45:14 2012 GMT
            Not After : Dec 26 06:45:14 2015 GMT
        Subject: C=UA, ST=~~~, O=SiriPort.Ru, CN=SiriPort.Ru Original, CN=SiriPort.Ru Original/emailAddress=gdimaits@me.com
        Subject Public Key Info:
            Public Key Algorithm: rsaEncryption
                Public-Key: (1024 bit)
                Modulus:
                    00:e8:3c:d7:00:57:8d:d6:fa:bf:85:be:a1:68:e0:
                    d3:0b:66:8d:41:18:e1:95:16:a2:88:2c:45:74:b8:
                    6b:9d:87:d1:3a:98:d4:ea:3e:af:43:a9:c2:d5:71:
                    9d:94:60:41:78:df:23:72:88:6b:c7:d2:b9:9b:20:
                    d3:f2:fa:ae:7d:73:d1:59:17:9e:6c:6d:f5:4f:bd:
                    c5:ab:f2:eb:b7:5a:99:78:25:0a:0a:b9:15:18:59:
                    e5:20:b0:61:19:bc:9c:2c:c4:ed:fc:e3:6d:0f:a7:
                    ae:e8:45:64:3f:20:52:81:5d:1b:c3:e5:2a:31:a8:
                    25:e6:7b:da:e2:00:59:30:71
                Exponent: 65537 (0x10001)
        X509v3 extensions:
            X509v3 Subject Key Identifier: 
                4A:35:86:3B:62:6A:49:A2:A4:4A:D7:C9:97:A1:2D:40:3D:AE:60:94
            X509v3 Authority Key Identifier: 
                keyid:4A:35:86:3B:62:6A:49:A2:A4:4A:D7:C9:97:A1:2D:40:3D:AE:60:94

            X509v3 Basic Constraints: 
                CA:TRUE
    Signature Algorithm: sha1WithRSAEncryption
         6a:d7:ce:8c:96:92:3a:f6:02:87:f8:43:32:d6:da:34:e1:3e:
         55:45:9b:96:c1:a4:0d:f3:e0:22:85:bc:73:e4:ed:56:98:94:
         b8:1e:64:06:3a:e7:89:bf:e3:1c:ea:35:9c:3e:89:4b:19:9c:
         c7:b8:2f:fd:8b:f8:a8:8b:7e:4c:ae:b1:36:26:05:a6:22:aa:
         d1:f2:b9:5f:0d:d0:25:c3:e7:34:dc:45:4c:a3:cc:92:af:84:
         00:7f:a8:9f:53:0e:9c:28:1d:7b:90:ae:ec:91:c4:96:b5:cf:
         eb:2a:53:c3:d7:f1:87:0f:52:22:07:5d:0c:e2:6d:1a:f4:ab:
         e7:35
-----BEGIN CERTIFICATE-----
MIIC7jCCAlegAwIBAgIJAN/yciqla3y/MA0GCSqGSIb3DQEBBQUAMIGPMQswCQYD
VQQGEwJVQTEMMAoGA1UECAwDfn5+MRQwEgYDVQQKDAtTaXJpUG9ydC5SdTEdMBsG
A1UEAwwUU2lyaVBvcnQuUnUgT3JpZ2luYWwxHTAbBgNVBAMMFFNpcmlQb3J0LlJ1
IE9yaWdpbmFsMR4wHAYJKoZIhvcNAQkBFg9nZGltYWl0c0BtZS5jb20wHhcNMTIx
MjI2MDY0NTE0WhcNMTUxMjI2MDY0NTE0WjCBjzELMAkGA1UEBhMCVUExDDAKBgNV
BAgMA35+fjEUMBIGA1UECgwLU2lyaVBvcnQuUnUxHTAbBgNVBAMMFFNpcmlQb3J0
LlJ1IE9yaWdpbmFsMR0wGwYDVQQDDBRTaXJpUG9ydC5SdSBPcmlnaW5hbDEeMBwG
CSqGSIb3DQEJARYPZ2RpbWFpdHNAbWUuY29tMIGfMA0GCSqGSIb3DQEBAQUAA4GN
ADCBiQKBgQDoPNcAV43W+r+FvqFo4NMLZo1BGOGVFqKILEV0uGudh9E6mNTqPq9D
qcLVcZ2UYEF43yNyiGvH0rmbINPy+q59c9FZF55sbfVPvcWr8uu3Wpl4JQoKuRUY
WeUgsGEZvJwsxO38420Pp67oRWQ/IFKBXRvD5SoxqCXme9riAFkwcQIDAQABo1Aw
TjAdBgNVHQ4EFgQUSjWGO2JqSaKkStfJl6EtQD2uYJQwHwYDVR0jBBgwFoAUSjWG
O2JqSaKkStfJl6EtQD2uYJQwDAYDVR0TBAUwAwEB/zANBgkqhkiG9w0BAQUFAAOB
gQBq186MlpI69gKH+EMy1to04T5VRZuWwaQN8+Aihbxz5O1WmJS4HmQGOueJv+Mc
6jWcPolLGZzHuC/9i/ioi35MrrE2JgWmIqrR8rlfDdAlw+c03EVMo8ySr4QAf6if
Uw6cKB17kK7skcSWtc/rKlPD1/GHD1IiB10M4m0a9KvnNQ==
-----END CERTIFICATE-----